target datalayout = "e-m:e-p270:32:32-p271:32:32-p272:64:64-i64:64-i128:128-f80:128-n8:16:32:64-S128"
target triple = "x86_64-pc-linux-gnu"

%"class.std::__shared_count" = type { ptr }
%"class.std::shared_ptr.3" = type { %"class.std::__shared_ptr.4" }
%"class.std::__shared_ptr.4" = type { ptr, %"class.std::__shared_count" }
%"class.rocksdb::PessimisticTransactionDB" = type { %"class.rocksdb::TransactionDB", ptr, %"class.std::shared_ptr.3", %"struct.rocksdb::TransactionDBOptions", %"class.std::shared_ptr.17", %"class.rocksdb::InstrumentedMutex", %"class.std::mutex", %"class.std::unordered_map", %"class.std::mutex", %"class.std::unordered_map.25" }
%"class.rocksdb::TransactionDB" = type { %"class.rocksdb::StackableDB" }
%"class.rocksdb::StackableDB" = type { %"class.rocksdb::DB", ptr, %"class.std::shared_ptr" }
%"class.rocksdb::DB" = type { ptr }
%"class.std::shared_ptr" = type { %"class.std::__shared_ptr" }
%"class.std::__shared_ptr" = type { ptr, %"class.std::__shared_count" }
%"struct.rocksdb::TransactionDBOptions" = type <{ i64, i32, [4 x i8], i64, i64, i64, %"class.std::shared_ptr.6", i32, i8, [3 x i8], %"class.std::shared_ptr.9", i8, [7 x i8], i64, %"class.std::function", i8, [7 x i8], %"class.std::vector.12", i32, [4 x i8], i64, i64, i8, [7 x i8] }>
%"class.std::shared_ptr.6" = type { %"class.std::__shared_ptr.7" }
%"class.std::__shared_ptr.7" = type { ptr, %"class.std::__shared_count" }
%"class.std::shared_ptr.9" = type { %"class.std::__shared_ptr.10" }
%"class.std::__shared_ptr.10" = type { ptr, %"class.std::__shared_count" }
%"class.std::function" = type { %"class.std::_Function_base", ptr }
%"class.std::_Function_base" = type { %"union.std::_Any_data", ptr }
%"union.std::_Any_data" = type { %"union.std::_Nocopy_types" }
%"union.std::_Nocopy_types" = type { { i64, i64 } }
%"class.std::vector.12" = type { %"struct.std::_Vector_base.13" }
%"struct.std::_Vector_base.13" = type { %"struct.std::_Vector_base<std::shared_ptr<rocksdb::SecondaryIndex>, std::allocator<std::shared_ptr<rocksdb::SecondaryIndex>>>::_Vector_impl" }
%"struct.std::_Vector_base<std::shared_ptr<rocksdb::SecondaryIndex>, std::allocator<std::shared_ptr<rocksdb::SecondaryIndex>>>::_Vector_impl" = type { %"struct.std::_Vector_base<std::shared_ptr<rocksdb::SecondaryIndex>, std::allocator<std::shared_ptr<rocksdb::SecondaryIndex>>>::_Vector_impl_data" }
%"struct.std::_Vector_base<std::shared_ptr<rocksdb::SecondaryIndex>, std::allocator<std::shared_ptr<rocksdb::SecondaryIndex>>>::_Vector_impl_data" = type { ptr, ptr, ptr }
%"class.std::shared_ptr.17" = type { %"class.std::__shared_ptr.18" }
%"class.std::__shared_ptr.18" = type { ptr, %"class.std::__shared_count" }
%"class.rocksdb::InstrumentedMutex" = type <{ %"class.rocksdb::port::Mutex", ptr, ptr, i32, [4 x i8] }>
%"class.rocksdb::port::Mutex" = type { %union.pthread_mutex_t }
%union.pthread_mutex_t = type { %struct.__pthread_mutex_s }
%struct.__pthread_mutex_s = type { i32, i32, i32, i32, i32, i16, i16, %struct.__pthread_internal_list }
%struct.__pthread_internal_list = type { ptr, ptr }
%"class.std::unordered_map" = type { %"class.std::_Hashtable" }
%"class.std::_Hashtable" = type { ptr, i64, %"struct.std::__detail::_Hash_node_base", i64, %"struct.std::__detail::_Prime_rehash_policy", ptr }
%"struct.std::__detail::_Hash_node_base" = type { ptr }
%"struct.std::__detail::_Prime_rehash_policy" = type { float, i64 }
%"class.std::mutex" = type { %"class.std::__mutex_base" }
%"class.std::__mutex_base" = type { %union.pthread_mutex_t }
%"class.std::unordered_map.25" = type { %"class.std::_Hashtable.26" }
%"class.std::_Hashtable.26" = type { ptr, i64, %"struct.std::__detail::_Hash_node_base", i64, %"struct.std::__detail::_Prime_rehash_policy", ptr }
%"class.std::lock_guard" = type { ptr }
%"struct.std::pair.533" = type { i64, ptr }
%"struct.std::pair.529" = type <{ %"struct.std::__detail::_Node_iterator.531", i8, [7 x i8] }>
%"struct.std::__detail::_Node_iterator.531" = type { %"struct.std::__detail::_Node_iterator_base.532" }
%"struct.std::__detail::_Node_iterator_base.532" = type { ptr }

; Function Attrs: inlinehint mustprogress nounwind uwtable
define internal noundef i32 @_ZL18__gthread_active_pv() #1 {
  ret i32 1
}

; Function Attrs: inlinehint mustprogress nounwind uwtable
define internal noundef i32 @_ZL22__gthread_mutex_unlockP15pthread_mutex_t(ptr noundef %0) #1 {
  %2 = alloca i32, align 4
  %3 = alloca ptr, align 8
  store ptr %0, ptr %3, align 8, !tbaa !36
  %4 = call noundef i32 @_ZL18__gthread_active_pv()
  %5 = icmp ne i32 %4, 0
  br i1 %5, label %6, label %9

6:                                                ; preds = %1
  %7 = load ptr, ptr %3, align 8, !tbaa !36
  %8 = call i32 @pthread_mutex_unlock(ptr noundef %7) #4
  store i32 %8, ptr %2, align 4
  br label %10

9:                                                ; preds = %1
  store i32 0, ptr %2, align 4
  br label %10

10:                                               ; preds = %9, %6
  %11 = load i32, ptr %2, align 4
  ret i32 %11
}

; Function Attrs: mustprogress nounwind uwtable
define linkonce_odr noundef nonnull align 8 dereferenceable(56) ptr @_ZNSt8__detail12_Insert_baseImSt4pairIKmPN7rocksdb22PessimisticTransactionEESaIS6_ENS_10_Select1stESt8equal_toImESt4hashImENS_18_Mod_range_hashingENS_20_Default_ranged_hashENS_20_Prime_rehash_policyENS_17_Hashtable_traitsILb0ELb0ELb1EEEE20_M_conjure_hashtableEv(ptr noundef nonnull align 1 dereferenceable(1) %0) #3 comdat align 2 {
  %2 = alloca ptr, align 8
  store ptr %0, ptr %2, align 8, !tbaa !2207
  %3 = load ptr, ptr %2, align 8
  ret ptr %3
}

; Function Attrs: inlinehint mustprogress uwtable
define internal noundef i32 @_ZL20__gthread_mutex_lockP15pthread_mutex_t(ptr noundef %0) #6 {
  %2 = alloca i32, align 4
  %3 = alloca ptr, align 8
  store ptr %0, ptr %3, align 8, !tbaa !36
  %4 = call noundef i32 @_ZL18__gthread_active_pv()
  %5 = icmp ne i32 %4, 0
  br i1 %5, label %6, label %9

6:                                                ; preds = %1
  %7 = load ptr, ptr %3, align 8, !tbaa !36
  %8 = call i32 @pthread_mutex_lock(ptr noundef %7) #4
  store i32 %8, ptr %2, align 4
  br label %10

9:                                                ; preds = %1
  store i32 0, ptr %2, align 4
  br label %10

10:                                               ; preds = %9, %6
  %11 = load i32, ptr %2, align 4
  ret i32 %11
}

; Function Attrs: noinline noreturn nounwind uwtable
define linkonce_odr hidden void @__clang_call_terminate(ptr noundef %0) #14 comdat {
  %2 = call ptr @__cxa_begin_catch(ptr %0) #4
  call void @_ZSt9terminatev() #23
  unreachable
}

; Function Attrs: mustprogress uwtable
define linkonce_odr void @_ZNSt5mutex6unlockEv(ptr noundef nonnull align 8 dereferenceable(40) %0) #5 comdat align 2 {
  %2 = alloca ptr, align 8
  store ptr %0, ptr %2, align 8, !tbaa !122
  %3 = load ptr, ptr %2, align 8
  %4 = getelementptr inbounds nuw %"class.std::__mutex_base", ptr %3, i32 0, i32 0
  %5 = call noundef i32 @_ZL22__gthread_mutex_unlockP15pthread_mutex_t(ptr noundef %4)
  ret void
}

; Function Attrs: mustprogress uwtable
define linkonce_odr { ptr, i8 } @_ZNSt8__detail7_InsertImSt4pairIKmPN7rocksdb22PessimisticTransactionEESaIS6_ENS_10_Select1stESt8equal_toImESt4hashImENS_18_Mod_range_hashingENS_20_Default_ranged_hashENS_20_Prime_rehash_policyENS_17_Hashtable_traitsILb0ELb0ELb1EEELb0EE6insertIS6_vEES1_INS_14_Node_iteratorIS6_Lb0ELb0EEEbEOT_(ptr noundef nonnull align 1 dereferenceable(1) %0, ptr noundef nonnull align 8 dereferenceable(16) %1) #5 comdat align 2 {
  %3 = alloca %"struct.std::pair.529", align 8
  %4 = alloca ptr, align 8
  %5 = alloca ptr, align 8
  %6 = alloca ptr, align 8
  %7 = alloca { ptr, i8 }, align 8
  store ptr %0, ptr %4, align 8, !tbaa !2205
  store ptr %1, ptr %5, align 8, !tbaa !501
  %8 = load ptr, ptr %4, align 8
  call void @llvm.lifetime.start.p0(i64 8, ptr %6) #4
  %9 = call noundef nonnull align 8 dereferenceable(56) ptr @_ZNSt8__detail12_Insert_baseImSt4pairIKmPN7rocksdb22PessimisticTransactionEESaIS6_ENS_10_Select1stESt8equal_toImESt4hashImENS_18_Mod_range_hashingENS_20_Default_ranged_hashENS_20_Prime_rehash_policyENS_17_Hashtable_traitsILb0ELb0ELb1EEEE20_M_conjure_hashtableEv(ptr noundef nonnull align 1 dereferenceable(1) %8)
  store ptr %9, ptr %6, align 8, !tbaa !1010
  %10 = load ptr, ptr %6, align 8, !tbaa !1010
  %11 = load ptr, ptr %5, align 8, !tbaa !501
  %12 = call { ptr, i8 } @_ZNSt10_HashtableImSt4pairIKmPN7rocksdb22PessimisticTransactionEESaIS5_ENSt8__detail10_Select1stESt8equal_toImESt4hashImENS7_18_Mod_range_hashingENS7_20_Default_ranged_hashENS7_20_Prime_rehash_policyENS7_17_Hashtable_traitsILb0ELb0ELb1EEEE10_M_emplaceIJS5_EEES0_INS7_14_Node_iteratorIS5_Lb0ELb0EEEbESt17integral_constantIbLb1EEDpOT_(ptr noundef nonnull align 8 dereferenceable(56) %10, ptr noundef nonnull align 8 dereferenceable(16) %11)
  store { ptr, i8 } %12, ptr %7, align 8
  call void @llvm.memcpy.p0.p0.i64(ptr align 8 %3, ptr align 8 %7, i64 9, i1 false)
  call void @llvm.lifetime.end.p0(i64 8, ptr %6) #4
  %13 = load { ptr, i8 }, ptr %3, align 8
  ret { ptr, i8 } %13
}

; Function Attrs: mustprogress uwtable
define linkonce_odr void @_ZNSt5mutex4lockEv(ptr noundef nonnull align 8 dereferenceable(40) %0) #5 comdat align 2 {
  %2 = alloca ptr, align 8
  %3 = alloca i32, align 4
  store ptr %0, ptr %2, align 8, !tbaa !122
  %4 = load ptr, ptr %2, align 8
  call void @llvm.lifetime.start.p0(i64 4, ptr %3) #4
  %5 = getelementptr inbounds nuw %"class.std::__mutex_base", ptr %4, i32 0, i32 0
  %6 = call noundef i32 @_ZL20__gthread_mutex_lockP15pthread_mutex_t(ptr noundef %5)
  store i32 %6, ptr %3, align 4, !tbaa !480
  %7 = load i32, ptr %3, align 4, !tbaa !480
  %8 = icmp ne i32 %7, 0
  br i1 %8, label %9, label %11

9:                                                ; preds = %1
  %10 = load i32, ptr %3, align 4, !tbaa !480
  call void @_ZSt20__throw_system_errori(i32 noundef %10) #24
  unreachable

11:                                               ; preds = %1
  call void @llvm.lifetime.end.p0(i64 4, ptr %3) #4
  ret void
}

; Function Attrs: mustprogress nounwind uwtable
define linkonce_odr void @_ZNSt10lock_guardISt5mutexED2Ev(ptr noundef nonnull align 8 dereferenceable(8) %0) unnamed_addr #3 comdat align 2 personality ptr @__gxx_personality_v0 {
  %2 = alloca ptr, align 8
  store ptr %0, ptr %2, align 8, !tbaa !497
  %3 = load ptr, ptr %2, align 8
  %4 = getelementptr inbounds nuw %"class.std::lock_guard", ptr %3, i32 0, i32 0
  %5 = load ptr, ptr %4, align 8, !tbaa !499
  invoke void @_ZNSt5mutex6unlockEv(ptr noundef nonnull align 8 dereferenceable(40) %5)
          to label %6 unwind label %7

6:                                                ; preds = %1
  ret void

7:                                                ; preds = %1
  %8 = landingpad { ptr, i32 }
          catch ptr null
  %9 = extractvalue { ptr, i32 } %8, 0
  call void @__clang_call_terminate(ptr %9) #23
  unreachable
}

; Function Attrs: mustprogress uwtable
define linkonce_odr { ptr, i8 } @_ZNSt13unordered_mapImPN7rocksdb22PessimisticTransactionESt4hashImESt8equal_toImESaISt4pairIKmS2_EEE6insertEOS9_(ptr noundef nonnull align 8 dereferenceable(56) %0, ptr noundef nonnull align 8 dereferenceable(16) %1) #5 comdat align 2 {
  %3 = alloca %"struct.std::pair.529", align 8
  %4 = alloca ptr, align 8
  %5 = alloca ptr, align 8
  %6 = alloca { ptr, i8 }, align 8
  store ptr %0, ptr %4, align 8, !tbaa !124
  store ptr %1, ptr %5, align 8, !tbaa !501
  %7 = load ptr, ptr %4, align 8
  %8 = getelementptr inbounds nuw %"class.std::unordered_map", ptr %7, i32 0, i32 0
  %9 = load ptr, ptr %5, align 8, !tbaa !501
  %10 = call { ptr, i8 } @_ZNSt8__detail7_InsertImSt4pairIKmPN7rocksdb22PessimisticTransactionEESaIS6_ENS_10_Select1stESt8equal_toImESt4hashImENS_18_Mod_range_hashingENS_20_Default_ranged_hashENS_20_Prime_rehash_policyENS_17_Hashtable_traitsILb0ELb0ELb1EEELb0EE6insertIS6_vEES1_INS_14_Node_iteratorIS6_Lb0ELb0EEEbEOT_(ptr noundef nonnull align 1 dereferenceable(1) %8, ptr noundef nonnull align 8 dereferenceable(16) %9)
  store { ptr, i8 } %10, ptr %6, align 8
  call void @llvm.memcpy.p0.p0.i64(ptr align 8 %3, ptr align 8 %6, i64 9, i1 false)
  %11 = load { ptr, i8 }, ptr %3, align 8
  ret { ptr, i8 } %11
}

; Function Attrs: mustprogress nounwind uwtable
define linkonce_odr void @_ZNSt4pairIKmPN7rocksdb22PessimisticTransactionEEC2IRmRS3_TnNSt9enable_ifIXaaclsr5_PCCPE22_MoveConstructiblePairIT_T0_EEclsr5_PCCPE30_ImplicitlyMoveConvertiblePairIS9_SA_EEEbE4typeELb1EEEOS9_OSA_(ptr noundef nonnull align 8 dereferenceable(16) %0, ptr noundef nonnull align 8 dereferenceable(8) %1, ptr noundef nonnull align 8 dereferenceable(8) %2) unnamed_addr #3 comdat align 2 {
  %4 = alloca ptr, align 8
  %5 = alloca ptr, align 8
  %6 = alloca ptr, align 8
  store ptr %0, ptr %4, align 8, !tbaa !501
  store ptr %1, ptr %5, align 8, !tbaa !230
  store ptr %2, ptr %6, align 8, !tbaa !503
  %7 = load ptr, ptr %4, align 8
  %8 = getelementptr inbounds nuw %"struct.std::pair.533", ptr %7, i32 0, i32 0
  %9 = load ptr, ptr %5, align 8, !tbaa !230
  %10 = load i64, ptr %9, align 8, !tbaa !4
  store i64 %10, ptr %8, align 8, !tbaa !505
  %11 = getelementptr inbounds nuw %"struct.std::pair.533", ptr %7, i32 0, i32 1
  %12 = load ptr, ptr %6, align 8, !tbaa !503
  %13 = load ptr, ptr %12, align 8, !tbaa !334
  store ptr %13, ptr %11, align 8, !tbaa !507
  ret void
}

; Function Attrs: mustprogress uwtable
define linkonce_odr void @_ZNSt10lock_guardISt5mutexEC2ERS0_(ptr noundef nonnull align 8 dereferenceable(8) %0, ptr noundef nonnull align 8 dereferenceable(40) %1) unnamed_addr #5 comdat align 2 {
  %3 = alloca ptr, align 8
  %4 = alloca ptr, align 8
  store ptr %0, ptr %3, align 8, !tbaa !497
  store ptr %1, ptr %4, align 8, !tbaa !122
  %5 = load ptr, ptr %3, align 8
  %6 = getelementptr inbounds nuw %"class.std::lock_guard", ptr %5, i32 0, i32 0
  %7 = load ptr, ptr %4, align 8, !tbaa !122
  store ptr %7, ptr %6, align 8, !tbaa !122
  %8 = getelementptr inbounds nuw %"class.std::lock_guard", ptr %5, i32 0, i32 0
  %9 = load ptr, ptr %8, align 8, !tbaa !499
  call void @_ZNSt5mutex4lockEv(ptr noundef nonnull align 8 dereferenceable(40) %9)
  ret void
}

; Function Attrs: mustprogress uwtable
define void @_ZN7rocksdb24PessimisticTransactionDB26InsertExpirableTransactionEmPNS_22PessimisticTransactionE(ptr noundef nonnull align 8 dereferenceable(520) %0, i64 noundef %1, ptr noundef %2) #5 align 2 personality ptr @__gxx_personality_v0 {
  %4 = alloca ptr, align 8
  %5 = alloca i64, align 8
  %6 = alloca ptr, align 8
  %7 = alloca %"class.std::lock_guard", align 8
  %8 = alloca %"struct.std::pair.533", align 8
  %9 = alloca ptr, align 8
  %10 = alloca i32, align 4
  %11 = alloca %"struct.std::pair.529", align 8
  store ptr %0, ptr %4, align 8, !tbaa !52
  store i64 %1, ptr %5, align 8, !tbaa !4
  store ptr %2, ptr %6, align 8, !tbaa !334
  %12 = load ptr, ptr %4, align 8
  call void @llvm.lifetime.start.p0(i64 8, ptr %7) #4
  %13 = getelementptr inbounds nuw %"class.rocksdb::PessimisticTransactionDB", ptr %12, i32 0, i32 6
  call void @_ZNSt10lock_guardISt5mutexEC2ERS0_(ptr noundef nonnull align 8 dereferenceable(8) %7, ptr noundef nonnull align 8 dereferenceable(40) %13)
  %14 = getelementptr inbounds nuw %"class.rocksdb::PessimisticTransactionDB", ptr %12, i32 0, i32 7
  call void @llvm.lifetime.start.p0(i64 16, ptr %8) #4
  invoke void @_ZNSt4pairIKmPN7rocksdb22PessimisticTransactionEEC2IRmRS3_TnNSt9enable_ifIXaaclsr5_PCCPE22_MoveConstructiblePairIT_T0_EEclsr5_PCCPE30_ImplicitlyMoveConvertiblePairIS9_SA_EEEbE4typeELb1EEEOS9_OSA_(ptr noundef nonnull align 8 dereferenceable(16) %8, ptr noundef nonnull align 8 dereferenceable(8) %5, ptr noundef nonnull align 8 dereferenceable(8) %6)
          to label %15 unwind label %22

15:                                               ; preds = %3
  %16 = invoke { ptr, i8 } @_ZNSt13unordered_mapImPN7rocksdb22PessimisticTransactionESt4hashImESt8equal_toImESaISt4pairIKmS2_EEE6insertEOS9_(ptr noundef nonnull align 8 dereferenceable(56) %14, ptr noundef nonnull align 8 dereferenceable(16) %8)
          to label %17 unwind label %22

17:                                               ; preds = %15
  %18 = getelementptr inbounds nuw { ptr, i8 }, ptr %11, i32 0, i32 0
  %19 = extractvalue { ptr, i8 } %16, 0
  store ptr %19, ptr %18, align 8
  %20 = getelementptr inbounds nuw { ptr, i8 }, ptr %11, i32 0, i32 1
  %21 = extractvalue { ptr, i8 } %16, 1
  store i8 %21, ptr %20, align 8
  call void @llvm.lifetime.end.p0(i64 16, ptr %8) #4
  call void @_ZNSt10lock_guardISt5mutexED2Ev(ptr noundef nonnull align 8 dereferenceable(8) %7) #4
  call void @llvm.lifetime.end.p0(i64 8, ptr %7) #4
  ret void

22:                                               ; preds = %15, %3
  %23 = landingpad { ptr, i32 }
          cleanup
  %24 = extractvalue { ptr, i32 } %23, 0
  store ptr %24, ptr %9, align 8
  %25 = extractvalue { ptr, i32 } %23, 1
  store i32 %25, ptr %10, align 4
  call void @llvm.lifetime.end.p0(i64 16, ptr %8) #4
  call void @_ZNSt10lock_guardISt5mutexED2Ev(ptr noundef nonnull align 8 dereferenceable(8) %7) #4
  call void @llvm.lifetime.end.p0(i64 8, ptr %7) #4
  br label %26

26:                                               ; preds = %22
  %27 = load ptr, ptr %9, align 8
  %28 = load i32, ptr %10, align 4
  %29 = insertvalue { ptr, i32 } poison, ptr %27, 0
  %30 = insertvalue { ptr, i32 } %29, i32 %28, 1
  resume { ptr, i32 } %30
}