; Function Attrs: mustprogress uwtable
define void @_ZN7rocksdb24PessimisticTransactionDB26InsertExpirableTransactionEmPNS_22PessimisticTransactionE(ptr noundef nonnull align 8 dereferenceable(520) %0, i64 noundef %1, ptr noundef %2) local_unnamed_addr #4 align 2 personality ptr @__gxx_personality_v0 {
  %4 = alloca %"struct.std::pair.533", align 8
  %5 = getelementptr inbounds nuw i8, ptr %0, i64 328
  %6 = tail call noundef i32 @pthread_mutex_lock(ptr noundef nonnull align 8 dereferenceable(40) %5) #28
  %.not.i.i = icmp eq i32 %6, 0
  br i1 %.not.i.i, label %_ZNSt10lock_guardISt5mutexEC2ERS0_.exit, label %7

7:                                                ; preds = %3
  tail call void @_ZSt20__throw_system_errori(i32 noundef %6) #30
  unreachable

_ZNSt10lock_guardISt5mutexEC2ERS0_.exit:          ; preds = %3
  %8 = getelementptr inbounds nuw i8, ptr %0, i64 368
  call void @llvm.lifetime.start.p0(i64 16, ptr nonnull %4) #28
  store i64 %1, ptr %4, align 8, !tbaa !507
  %9 = getelementptr inbounds nuw i8, ptr %4, i64 8
  store ptr %2, ptr %9, align 8, !tbaa !510
  %10 = invoke { ptr, i8 } @_ZNSt10_HashtableImSt4pairIKmPN7rocksdb22PessimisticTransactionEESaIS5_ENSt8__detail10_Select1stESt8equal_toImESt4hashImENS7_18_Mod_range_hashingENS7_20_Default_ranged_hashENS7_20_Prime_rehash_policyENS7_17_Hashtable_traitsILb0ELb0ELb1EEEE10_M_emplaceIJS5_EEES0_INS7_14_Node_iteratorIS5_Lb0ELb0EEEbESt17integral_constantIbLb1EEDpOT_(ptr noundef nonnull align 8 dereferenceable(56) %8, ptr noundef nonnull align 8 dereferenceable(16) %4)
          to label %_ZNSt13unordered_mapImPN7rocksdb22PessimisticTransactionESt4hashImESt8equal_toImESaISt4pairIKmS2_EEE6insertEOS9_.exit unwind label %12

_ZNSt13unordered_mapImPN7rocksdb22PessimisticTransactionESt4hashImESt8equal_toImESaISt4pairIKmS2_EEE6insertEOS9_.exit: ; preds = %_ZNSt10lock_guardISt5mutexEC2ERS0_.exit
  call void @llvm.lifetime.end.p0(i64 16, ptr nonnull %4) #28
  %11 = call noundef i32 @pthread_mutex_unlock(ptr noundef nonnull align 8 dereferenceable(40) %5) #28
  ret void

12:                                               ; preds = %_ZNSt10lock_guardISt5mutexEC2ERS0_.exit
  %13 = landingpad { ptr, i32 }
          cleanup
  call void @llvm.lifetime.end.p0(i64 16, ptr nonnull %4) #28
  %14 = call noundef i32 @pthread_mutex_unlock(ptr noundef nonnull align 8 dereferenceable(40) %5) #28
  resume { ptr, i32 } %13
}